; Function Attrs: null_pointer_is_valid sspstrong uwtable
define internal fastcc void @dissect_ptcch_dl(ptr noundef %0, ptr %.8.val, ptr noundef %1) unnamed_addr #0 {
  tail call void @col_set_str(ptr noundef %.8.val, i32 noundef 25, ptr noundef nonnull @.str.368)
  %.not = icmp eq ptr %1, null
  br i1 %.not, label %26, label %3

3:                                                ; preds = %2
  %4 = load i32, ptr @proto_gsmtap, align 4
  %5 = tail call ptr (ptr, i32, ptr, i32, i32, ptr, ...) @proto_tree_add_protocol_format(ptr noundef nonnull %1, i32 noundef %4, ptr noundef %0, i32 noundef 0, i32 noundef 23, ptr noundef nonnull @.str.369)
  %6 = load i32, ptr @ett_gsmtap, align 4
  %7 = tail call ptr @proto_item_add_subtree(ptr noundef %5, i32 noundef %6)
  br label %8

8:                                                ; preds = %3, %proto_item_set_generated.exit
  %.01 = phi i32 [ 0, %3 ], [ %22, %proto_item_set_generated.exit ]
  %9 = load i32, ptr @hf_ptcch_ta_idx, align 4
  %10 = tail call ptr @proto_tree_add_uint(ptr noundef %7, i32 noundef %9, ptr noundef %0, i32 noundef 0, i32 noundef 0, i32 noundef %.01)
  %.not.i = icmp eq ptr %10, null
  br i1 %.not.i, label %proto_item_set_generated.exit, label %11

11:                                               ; preds = %8
  %12 = getelementptr inbounds nuw i8, ptr %10, i64 40
  %13 = load ptr, ptr %12, align 8
  %.not5.i = icmp eq ptr %13, null
  br i1 %.not5.i, label %proto_item_set_generated.exit, label %14

14:                                               ; preds = %11
  %15 = getelementptr inbounds nuw i8, ptr %13, i64 28
  %16 = load i32, ptr %15, align 4
  %17 = or i32 %16, 2
  store i32 %17, ptr %15, align 4
  br label %proto_item_set_generated.exit

proto_item_set_generated.exit:                    ; preds = %8, %11, %14
  %18 = load i32, ptr @hf_ptcch_spare, align 4
  %19 = tail call ptr @proto_tree_add_item(ptr noundef %7, i32 noundef %18, ptr noundef %0, i32 noundef %.01, i32 noundef 1, i32 noundef 0)
  %20 = load i32, ptr @hf_ptcch_ta_val, align 4
  %21 = tail call ptr @proto_tree_add_item(ptr noundef %7, i32 noundef %20, ptr noundef %0, i32 noundef %.01, i32 noundef 1, i32 noundef 0)
  %22 = add nuw nsw i32 %.01, 1
  %exitcond.not = icmp eq i32 %22, 16
  br i1 %exitcond.not, label %23, label %8, !llvm.loop !6

23:                                               ; preds = %proto_item_set_generated.exit
  %24 = load i32, ptr @hf_ptcch_padding, align 4
  %25 = tail call ptr @proto_tree_add_item(ptr noundef %7, i32 noundef %24, ptr noundef %0, i32 noundef 16, i32 noundef -1, i32 noundef 0)
  br label %26

26:                                               ; preds = %2, %23
  ret void
}